; ModuleID = 'source-C-CXX/25/562.c'
source_filename = "source-C-CXX/25/562.c"
target datalayout = "e-m:e-p270:32:32-p271:32:32-p272:64:64-i64:64-f80:128-n8:16:32:64-S128"
target triple = "x86_64-pc-linux-gnu"

; Function Attrs: nounwind sspstrong uwtable
define dso_local void @main() local_unnamed_addr #0 {
  %1 = alloca [100 x i8], align 16
  %2 = getelementptr inbounds [100 x i8], [100 x i8]* %1, i64 0, i64 0
  call void @llvm.lifetime.start.p0i8(i64 100, i8* nonnull %2) #5
  %3 = call i32 (i8*, ...) bitcast (i32 (...)* @gets to i32 (i8*, ...)*)(i8* nonnull %2) #5
  %4 = load i8, i8* %2, align 16
  %5 = icmp eq i8 %4, 0
  br i1 %5, label %27, label %6

6:                                                ; preds = %0, %24
  %7 = phi i8 [ %26, %24 ], [ %4, %0 ]
  %8 = phi i64 [ %21, %24 ], [ 0, %0 ]
  %9 = icmp eq i8 %7, 32
  br i1 %9, label %12, label %10

10:                                               ; preds = %6
  %11 = sext i8 %7 to i32
  br label %17

12:                                               ; preds = %6
  %13 = add nsw i64 %8, -1
  %14 = getelementptr inbounds [100 x i8], [100 x i8]* %1, i64 0, i64 %13
  %15 = load i8, i8* %14, align 1, !tbaa !5
  %16 = icmp eq i8 %15, 32
  br i1 %16, label %20, label %17

17:                                               ; preds = %12, %10
  %18 = phi i32 [ %11, %10 ], [ 32, %12 ]
  %19 = call i32 @putchar(i32 %18)
  br label %20

20:                                               ; preds = %17, %12
  %21 = add nuw i64 %8, 1
  %22 = call i64 @strlen(i8* noundef nonnull %2) #6
  %23 = icmp ugt i64 %22, %21
  br i1 %23, label %24, label %27, !llvm.loop !8

24:                                               ; preds = %20
  %25 = getelementptr inbounds [100 x i8], [100 x i8]* %1, i64 0, i64 %21
  %26 = load i8, i8* %25, align 1, !tbaa !5
  br label %6

27:                                               ; preds = %20, %0
  call void @llvm.lifetime.end.p0i8(i64 100, i8* nonnull %2) #5
  ret void
}

; Function Attrs: argmemonly mustprogress nofree nosync nounwind willreturn
declare void @llvm.lifetime.start.p0i8(i64 immarg, i8* nocapture) #1

declare i32 @gets(...) local_unnamed_addr #2

; Function Attrs: argmemonly mustprogress nofree nounwind readonly willreturn
declare i64 @strlen(i8* nocapture) local_unnamed_addr #3

; Function Attrs: argmemonly mustprogress nofree nosync nounwind willreturn
declare void @llvm.lifetime.end.p0i8(i64 immarg, i8* nocapture) #1

; Function Attrs: nofree nounwind
declare noundef i32 @putchar(i32 noundef) local_unnamed_addr #4


!llvm.module.flags = !{!0, !1, !2, !3}
!llvm.ident = !{!4}

!0 = !{i32 1, !"wchar_size", i32 4}
!1 = !{i32 7, !"PIC Level", i32 2}
!2 = !{i32 7, !"PIE Level", i32 2}
!3 = !{i32 7, !"uwtable", i32 1}
!4 = !{!"clang version 13.0.0"}
!5 = !{!6, !6, i64 0}
!6 = !{!"omnipotent char", !7, i64 0}
!7 = !{!"Simple C/C++ TBAA"}
!8 = distinct !{!8, !9}
!9 = !{!"llvm.loop.mustprogress"}
